; Function Attrs: mustprogress uwtable
define dso_local void @_Z7GetInfoIN32pxrInternal_v0_24__pxrReserved__7GfVec2hEEvPNS0_7VtArrayIT_EEPNSt7__cxx1112basic_stringIcSt11char_traitsIcESaIcEEE(ptr noundef %0, ptr noundef nonnull %1) local_unnamed_addr #3 personality ptr @__gxx_personality_v0 {
  %3 = alloca %"class.pxrInternal_v0_24__pxrReserved__::VtArray.90", align 8
  %4 = tail call noundef nonnull align 8 dereferenceable(32) ptr @_ZNSt7__cxx1112basic_stringIcSt11char_traitsIcESaIcEEaSEPKc(ptr noundef nonnull align 8 dereferenceable(32) %1, ptr noundef nonnull @.str.67)
  call void @_ZN32pxrInternal_v0_24__pxrReserved__7VtArrayINS_7GfVec2hEEC1Em(ptr noundef nonnull align 8 dereferenceable(40) %3, i64 noundef 3)
  %5 = invoke noundef nonnull align 8 dereferenceable(40) ptr @_ZN32pxrInternal_v0_24__pxrReserved__7VtArrayINS_7GfVec2hEEaSEOS2_(ptr noundef nonnull align 8 dereferenceable(40) %0, ptr noundef nonnull align 8 dereferenceable(40) %3)
          to label %6 unwind label %32

6:                                                ; preds = %2
  call void @_ZN32pxrInternal_v0_24__pxrReserved__7VtArrayINS_7GfVec2hEED1Ev(ptr noundef nonnull align 8 dereferenceable(40) %3) #25
  %7 = load i16, ptr getelementptr inbounds (i8, ptr @_ZN32pxrInternal_v0_24__pxrReserved__8pxr_half4half5_eLutE, i64 252), align 4
  %.not.i = icmp eq i16 %7, 0
  br i1 %.not.i, label %8, label %_ZN32pxrInternal_v0_24__pxrReserved__8pxr_half4halfC2Ef.exit

8:                                                ; preds = %6
  %9 = call noundef signext i16 @_ZN32pxrInternal_v0_24__pxrReserved__8pxr_half4half7convertEi(i32 noundef 1056964608)
  br label %_ZN32pxrInternal_v0_24__pxrReserved__8pxr_half4halfC2Ef.exit

_ZN32pxrInternal_v0_24__pxrReserved__8pxr_half4halfC2Ef.exit: ; preds = %6, %8
  %.sink.i = phi i16 [ %9, %8 ], [ %7, %6 ]
  %10 = load i16, ptr getelementptr inbounds (i8, ptr @_ZN32pxrInternal_v0_24__pxrReserved__8pxr_half4half5_eLutE, i64 254), align 2
  %.not.i6 = icmp eq i16 %10, 0
  br i1 %.not.i6, label %13, label %11

11:                                               ; preds = %_ZN32pxrInternal_v0_24__pxrReserved__8pxr_half4halfC2Ef.exit
  %12 = add i16 %10, 512
  br label %_ZN32pxrInternal_v0_24__pxrReserved__8pxr_half4halfC2Ef.exit8

13:                                               ; preds = %_ZN32pxrInternal_v0_24__pxrReserved__8pxr_half4halfC2Ef.exit
  %14 = call noundef signext i16 @_ZN32pxrInternal_v0_24__pxrReserved__8pxr_half4half7convertEi(i32 noundef 1069547520)
  br label %_ZN32pxrInternal_v0_24__pxrReserved__8pxr_half4halfC2Ef.exit8

_ZN32pxrInternal_v0_24__pxrReserved__8pxr_half4halfC2Ef.exit8: ; preds = %11, %13
  %.sink.i7 = phi i16 [ %12, %11 ], [ %14, %13 ]
  %15 = call noundef nonnull align 2 dereferenceable(4) ptr @_ZN32pxrInternal_v0_24__pxrReserved__7VtArrayINS_7GfVec2hEEixEm(ptr noundef nonnull align 8 dereferenceable(40) %0, i64 noundef 0)
  %.sroa.230.0.insert.ext = zext i16 %.sink.i7 to i32
  %.sroa.230.0.insert.shift = shl nuw i32 %.sroa.230.0.insert.ext, 16
  %.sroa.029.0.insert.ext = zext i16 %.sink.i to i32
  %.sroa.029.0.insert.insert = or disjoint i32 %.sroa.230.0.insert.shift, %.sroa.029.0.insert.ext
  store i32 %.sroa.029.0.insert.insert, ptr %15, align 2
  %16 = load i16, ptr getelementptr inbounds (i8, ptr @_ZN32pxrInternal_v0_24__pxrReserved__8pxr_half4half5_eLutE, i64 256), align 16
  %.not.i9 = icmp eq i16 %16, 0
  br i1 %.not.i9, label %20, label %17

17:                                               ; preds = %_ZN32pxrInternal_v0_24__pxrReserved__8pxr_half4halfC2Ef.exit8
  %18 = add i16 %16, 256
  %19 = add i16 %16, 768
  br label %_ZN32pxrInternal_v0_24__pxrReserved__8pxr_half4halfC2Ef.exit14

20:                                               ; preds = %_ZN32pxrInternal_v0_24__pxrReserved__8pxr_half4halfC2Ef.exit8
  %21 = call noundef signext i16 @_ZN32pxrInternal_v0_24__pxrReserved__8pxr_half4half7convertEi(i32 noundef 1075838976)
  %22 = call noundef signext i16 @_ZN32pxrInternal_v0_24__pxrReserved__8pxr_half4half7convertEi(i32 noundef 1080033280)
  br label %_ZN32pxrInternal_v0_24__pxrReserved__8pxr_half4halfC2Ef.exit14

_ZN32pxrInternal_v0_24__pxrReserved__8pxr_half4halfC2Ef.exit14: ; preds = %17, %20
  %.sink.i1032 = phi i16 [ %18, %17 ], [ %21, %20 ]
  %.sink.i13 = phi i16 [ %19, %17 ], [ %22, %20 ]
  %23 = call noundef nonnull align 2 dereferenceable(4) ptr @_ZN32pxrInternal_v0_24__pxrReserved__7VtArrayINS_7GfVec2hEEixEm(ptr noundef nonnull align 8 dereferenceable(40) %0, i64 noundef 1)
  %.sroa.226.0.insert.ext = zext i16 %.sink.i13 to i32
  %.sroa.226.0.insert.shift = shl nuw i32 %.sroa.226.0.insert.ext, 16
  %.sroa.025.0.insert.ext = zext i16 %.sink.i1032 to i32
  %.sroa.025.0.insert.insert = or disjoint i32 %.sroa.226.0.insert.shift, %.sroa.025.0.insert.ext
  store i32 %.sroa.025.0.insert.insert, ptr %23, align 2
  %24 = load i16, ptr getelementptr inbounds (i8, ptr @_ZN32pxrInternal_v0_24__pxrReserved__8pxr_half4half5_eLutE, i64 258), align 2
  %.not.i15 = icmp eq i16 %24, 0
  br i1 %.not.i15, label %28, label %25

25:                                               ; preds = %_ZN32pxrInternal_v0_24__pxrReserved__8pxr_half4halfC2Ef.exit14
  %26 = add i16 %24, 128
  %27 = add i16 %24, 384
  br label %_ZN32pxrInternal_v0_24__pxrReserved__8pxr_half4halfC2Ef.exit20

28:                                               ; preds = %_ZN32pxrInternal_v0_24__pxrReserved__8pxr_half4halfC2Ef.exit14
  %29 = call noundef signext i16 @_ZN32pxrInternal_v0_24__pxrReserved__8pxr_half4half7convertEi(i32 noundef 1083179008)
  %30 = call noundef signext i16 @_ZN32pxrInternal_v0_24__pxrReserved__8pxr_half4half7convertEi(i32 noundef 1085276160)
  br label %_ZN32pxrInternal_v0_24__pxrReserved__8pxr_half4halfC2Ef.exit20

_ZN32pxrInternal_v0_24__pxrReserved__8pxr_half4halfC2Ef.exit20: ; preds = %25, %28
  %.sink.i1635 = phi i16 [ %26, %25 ], [ %29, %28 ]
  %.sink.i19 = phi i16 [ %27, %25 ], [ %30, %28 ]
  %31 = call noundef nonnull align 2 dereferenceable(4) ptr @_ZN32pxrInternal_v0_24__pxrReserved__7VtArrayINS_7GfVec2hEEixEm(ptr noundef nonnull align 8 dereferenceable(40) %0, i64 noundef 2)
  %.sroa.2.0.insert.ext = zext i16 %.sink.i19 to i32
  %.sroa.2.0.insert.shift = shl nuw i32 %.sroa.2.0.insert.ext, 16
  %.sroa.022.0.insert.ext = zext i16 %.sink.i1635 to i32
  %.sroa.022.0.insert.insert = or disjoint i32 %.sroa.2.0.insert.shift, %.sroa.022.0.insert.ext
  store i32 %.sroa.022.0.insert.insert, ptr %31, align 2
  ret void

32:                                               ; preds = %2
  %33 = landingpad { ptr, i32 }
          cleanup
  call void @_ZN32pxrInternal_v0_24__pxrReserved__7VtArrayINS_7GfVec2hEED1Ev(ptr noundef nonnull align 8 dereferenceable(40) %3) #25
  resume { ptr, i32 } %33
}